target datalayout = "e-m:e-p270:32:32-p271:32:32-p272:64:64-i64:64-i128:128-f80:128-n8:16:32:64-S128"
target triple = "x86_64-pc-linux-gnu"

%struct.cbs_st = type { ptr, i64 }

@.str = private unnamed_addr constant [116 x i8] c"generated/home/dtcxzyw/WorkSpace/Projects/compilers/llvm-opt-benchmark/bench/libquic/libquic/boringssl/ssl/t1_lib.c\00", align 1

; Function Attrs: nounwind uwtable
define internal i32 @tls1_check_duplicate_extensions(ptr noundef %0) #0 {
  %2 = alloca i32, align 4
  %3 = alloca ptr, align 8
  %4 = alloca %struct.cbs_st, align 8
  %5 = alloca i64, align 8
  %6 = alloca i64, align 8
  %7 = alloca ptr, align 8
  %8 = alloca i32, align 4
  %9 = alloca i16, align 2
  %10 = alloca %struct.cbs_st, align 8
  %11 = alloca i32, align 4
  %12 = alloca %struct.cbs_st, align 8
  store ptr %0, ptr %3, align 8, !tbaa !52
  call void @llvm.lifetime.start.p0(i64 16, ptr %4) #8
  %13 = load ptr, ptr %3, align 8, !tbaa !52
  call void @llvm.memcpy.p0.p0.i64(ptr align 8 %4, ptr align 8 %13, i64 16, i1 false), !tbaa.struct !54
  call void @llvm.lifetime.start.p0(i64 8, ptr %5) #8
  store i64 0, ptr %5, align 8, !tbaa !56
  call void @llvm.lifetime.start.p0(i64 8, ptr %6) #8
  store i64 0, ptr %6, align 8, !tbaa !56
  call void @llvm.lifetime.start.p0(i64 8, ptr %7) #8
  store ptr null, ptr %7, align 8, !tbaa !57
  call void @llvm.lifetime.start.p0(i64 4, ptr %8) #8
  store i32 0, ptr %8, align 4, !tbaa !58
  br label %14

14:                                               ; preds = %29, %1
  %15 = call i64 @CBS_len(ptr noundef %4)
  %16 = icmp ugt i64 %15, 0
  br i1 %16, label %17, label %30

17:                                               ; preds = %14
  call void @llvm.lifetime.start.p0(i64 2, ptr %9) #8
  call void @llvm.lifetime.start.p0(i64 16, ptr %10) #8
  %18 = call i32 @CBS_get_u16(ptr noundef %4, ptr noundef %9)
  %19 = icmp ne i32 %18, 0
  br i1 %19, label %20, label %23

20:                                               ; preds = %17
  %21 = call i32 @CBS_get_u16_length_prefixed(ptr noundef %4, ptr noundef %10)
  %22 = icmp ne i32 %21, 0
  br i1 %22, label %24, label %23

23:                                               ; preds = %20, %17
  store i32 4, ptr %11, align 4
  br label %27

24:                                               ; preds = %20
  %25 = load i64, ptr %5, align 8, !tbaa !56
  %26 = add i64 %25, 1
  store i64 %26, ptr %5, align 8, !tbaa !56
  store i32 0, ptr %11, align 4
  br label %27

27:                                               ; preds = %23, %24
  call void @llvm.lifetime.end.p0(i64 16, ptr %10) #8
  call void @llvm.lifetime.end.p0(i64 2, ptr %9) #8
  %28 = load i32, ptr %11, align 4
  switch i32 %28, label %93 [
    i32 0, label %29
    i32 4, label %90
  ]

29:                                               ; preds = %27
  br label %14, !llvm.loop !59

30:                                               ; preds = %14
  %31 = load i64, ptr %5, align 8, !tbaa !56
  %32 = icmp eq i64 %31, 0
  br i1 %32, label %33, label %34

33:                                               ; preds = %30
  store i32 1, ptr %2, align 4
  store i32 1, ptr %11, align 4
  br label %93

34:                                               ; preds = %30
  %35 = load i64, ptr %5, align 8, !tbaa !56
  %36 = mul i64 2, %35
  %37 = call noalias ptr @malloc(i64 noundef %36) #9
  store ptr %37, ptr %7, align 8, !tbaa !57
  %38 = load ptr, ptr %7, align 8, !tbaa !57
  %39 = icmp eq ptr %38, null
  br i1 %39, label %40, label %41

40:                                               ; preds = %34
  call void @ERR_put_error(i32 noundef 16, i32 noundef 0, i32 noundef 65, ptr noundef @.str, i32 noundef 173)
  br label %90

41:                                               ; preds = %34
  %42 = load ptr, ptr %3, align 8, !tbaa !52
  call void @llvm.memcpy.p0.p0.i64(ptr align 8 %4, ptr align 8 %42, i64 16, i1 false), !tbaa.struct !54
  store i64 0, ptr %6, align 8, !tbaa !56
  br label %43

43:                                               ; preds = %61, %41
  %44 = load i64, ptr %6, align 8, !tbaa !56
  %45 = load i64, ptr %5, align 8, !tbaa !56
  %46 = icmp ult i64 %44, %45
  br i1 %46, label %47, label %64

47:                                               ; preds = %43
  call void @llvm.lifetime.start.p0(i64 16, ptr %12) #8
  %48 = load ptr, ptr %7, align 8, !tbaa !57
  %49 = load i64, ptr %6, align 8, !tbaa !56
  %50 = getelementptr inbounds nuw i16, ptr %48, i64 %49
  %51 = call i32 @CBS_get_u16(ptr noundef %4, ptr noundef %50)
  %52 = icmp ne i32 %51, 0
  br i1 %52, label %53, label %56

53:                                               ; preds = %47
  %54 = call i32 @CBS_get_u16_length_prefixed(ptr noundef %4, ptr noundef %12)
  %55 = icmp ne i32 %54, 0
  br i1 %55, label %57, label %56

56:                                               ; preds = %53, %47
  store i32 4, ptr %11, align 4
  br label %58

57:                                               ; preds = %53
  store i32 0, ptr %11, align 4
  br label %58

58:                                               ; preds = %56, %57
  call void @llvm.lifetime.end.p0(i64 16, ptr %12) #8
  %59 = load i32, ptr %11, align 4
  switch i32 %59, label %93 [
    i32 0, label %60
    i32 4, label %90
  ]

60:                                               ; preds = %58
  br label %61

61:                                               ; preds = %60
  %62 = load i64, ptr %6, align 8, !tbaa !56
  %63 = add i64 %62, 1
  store i64 %63, ptr %6, align 8, !tbaa !56
  br label %43, !llvm.loop !61

64:                                               ; preds = %43
  %65 = load ptr, ptr %7, align 8, !tbaa !57
  %66 = load i64, ptr %5, align 8, !tbaa !56
  call void @qsort(ptr noundef %65, i64 noundef %66, i64 noundef 2, ptr noundef @compare_uint16_t)
  store i64 1, ptr %6, align 8, !tbaa !56
  br label %67

67:                                               ; preds = %86, %64
  %68 = load i64, ptr %6, align 8, !tbaa !56
  %69 = load i64, ptr %5, align 8, !tbaa !56
  %70 = icmp ult i64 %68, %69
  br i1 %70, label %71, label %89

71:                                               ; preds = %67
  %72 = load ptr, ptr %7, align 8, !tbaa !57
  %73 = load i64, ptr %6, align 8, !tbaa !56
  %74 = sub i64 %73, 1
  %75 = getelementptr inbounds nuw i16, ptr %72, i64 %74
  %76 = load i16, ptr %75, align 2, !tbaa !62
  %77 = zext i16 %76 to i32
  %78 = load ptr, ptr %7, align 8, !tbaa !57
  %79 = load i64, ptr %6, align 8, !tbaa !56
  %80 = getelementptr inbounds nuw i16, ptr %78, i64 %79
  %81 = load i16, ptr %80, align 2, !tbaa !62
  %82 = zext i16 %81 to i32
  %83 = icmp eq i32 %77, %82
  br i1 %83, label %84, label %85

84:                                               ; preds = %71
  br label %90

85:                                               ; preds = %71
  br label %86

86:                                               ; preds = %85
  %87 = load i64, ptr %6, align 8, !tbaa !56
  %88 = add i64 %87, 1
  store i64 %88, ptr %6, align 8, !tbaa !56
  br label %67, !llvm.loop !63

89:                                               ; preds = %67
  store i32 1, ptr %8, align 4, !tbaa !58
  br label %90

90:                                               ; preds = %89, %58, %27, %84, %40
  %91 = load ptr, ptr %7, align 8, !tbaa !57
  call void @free(ptr noundef %91) #8
  %92 = load i32, ptr %8, align 4, !tbaa !58
  store i32 %92, ptr %2, align 4
  store i32 1, ptr %11, align 4
  br label %93

93:                                               ; preds = %90, %58, %33, %27
  call void @llvm.lifetime.end.p0(i64 4, ptr %8) #8
  call void @llvm.lifetime.end.p0(i64 8, ptr %7) #8
  call void @llvm.lifetime.end.p0(i64 8, ptr %6) #8
  call void @llvm.lifetime.end.p0(i64 8, ptr %5) #8
  call void @llvm.lifetime.end.p0(i64 16, ptr %4) #8
  %94 = load i32, ptr %2, align 4
  ret i32 %94
}