; Function Attrs: nounwind uwtable
define internal fastcc range(i32 0, 2) i32 @tls1_check_duplicate_extensions(ptr noundef nonnull readonly captures(none) %0) unnamed_addr #0 {
  %2 = alloca %struct.cbs_st, align 8
  %3 = alloca i16, align 2
  %4 = alloca %struct.cbs_st, align 8
  %5 = alloca %struct.cbs_st, align 8
  call void @llvm.lifetime.start.p0(i64 16, ptr nonnull %2) #21
  call void @llvm.memcpy.p0.p0.i64(ptr noundef nonnull align 8 dereferenceable(16) %2, ptr noundef nonnull align 8 dereferenceable(16) %0, i64 16, i1 false), !tbaa.struct !50
  %6 = call i64 @CBS_len(ptr noundef nonnull %2) #21
  %.not52 = icmp eq i64 %6, 0
  br i1 %.not52, label %._crit_edge.thread, label %.lr.ph

.lr.ph:                                           ; preds = %1, %10
  %.02853 = phi i64 [ %11, %10 ], [ 0, %1 ]
  call void @llvm.lifetime.start.p0(i64 2, ptr nonnull %3) #21
  call void @llvm.lifetime.start.p0(i64 16, ptr nonnull %4) #21
  %7 = call i32 @CBS_get_u16(ptr noundef nonnull %2, ptr noundef nonnull %3) #21
  %.not35 = icmp eq i32 %7, 0
  br i1 %.not35, label %.thread, label %8

8:                                                ; preds = %.lr.ph
  %9 = call i32 @CBS_get_u16_length_prefixed(ptr noundef nonnull %2, ptr noundef nonnull %4) #21
  %.not36 = icmp eq i32 %9, 0
  br i1 %.not36, label %.thread, label %10

.thread:                                          ; preds = %.lr.ph, %8
  call void @llvm.lifetime.end.p0(i64 16, ptr nonnull %4) #21
  call void @llvm.lifetime.end.p0(i64 2, ptr nonnull %3) #21
  br label %.loopexit

10:                                               ; preds = %8
  %11 = add i64 %.02853, 1
  call void @llvm.lifetime.end.p0(i64 16, ptr nonnull %4) #21
  call void @llvm.lifetime.end.p0(i64 2, ptr nonnull %3) #21
  %12 = call i64 @CBS_len(ptr noundef nonnull %2) #21
  %.not = icmp eq i64 %12, 0
  br i1 %.not, label %._crit_edge, label %.lr.ph

._crit_edge:                                      ; preds = %10
  %13 = icmp eq i64 %11, 0
  br i1 %13, label %._crit_edge.thread, label %14

14:                                               ; preds = %._crit_edge
  %15 = shl i64 %11, 1
  %16 = call noalias ptr @malloc(i64 noundef %15) #22
  %17 = icmp eq ptr %16, null
  br i1 %17, label %18, label %19

18:                                               ; preds = %14
  call void @ERR_put_error(i32 noundef 16, i32 noundef 0, i32 noundef 65, ptr noundef nonnull @.str, i32 noundef 173) #21
  br label %.loopexit

19:                                               ; preds = %14
  call void @llvm.memcpy.p0.p0.i64(ptr noundef nonnull align 8 dereferenceable(16) %2, ptr noundef nonnull align 8 dereferenceable(16) %0, i64 16, i1 false), !tbaa.struct !50
  br label %20

20:                                               ; preds = %19, %25
  %.02654 = phi i64 [ 0, %19 ], [ %26, %25 ]
  call void @llvm.lifetime.start.p0(i64 16, ptr nonnull %5) #21
  %21 = getelementptr inbounds nuw i16, ptr %16, i64 %.02654
  %22 = call i32 @CBS_get_u16(ptr noundef nonnull %2, ptr noundef nonnull %21) #21
  %.not33 = icmp eq i32 %22, 0
  br i1 %.not33, label %.thread48, label %23

23:                                               ; preds = %20
  %24 = call i32 @CBS_get_u16_length_prefixed(ptr noundef nonnull %2, ptr noundef nonnull %5) #21
  %.not34 = icmp eq i32 %24, 0
  br i1 %.not34, label %.thread48, label %25

.thread48:                                        ; preds = %20, %23
  call void @llvm.lifetime.end.p0(i64 16, ptr nonnull %5) #21
  br label %.loopexit

25:                                               ; preds = %23
  call void @llvm.lifetime.end.p0(i64 16, ptr nonnull %5) #21
  %26 = add nuw i64 %.02654, 1
  %exitcond.not = icmp eq i64 %.02654, %.02853
  br i1 %exitcond.not, label %27, label %20, !llvm.loop !53

27:                                               ; preds = %25
  call void @qsort(ptr noundef nonnull %16, i64 noundef %11, i64 noundef 2, ptr noundef nonnull @compare_uint16_t) #21
  %.not61 = icmp eq i64 %.02853, 0
  br i1 %.not61, label %.loopexit, label %.lr.ph57

28:                                               ; preds = %.lr.ph57
  %29 = add nuw i64 %.12755, 1
  %exitcond62.not = icmp eq i64 %.12755, %.02853
  br i1 %exitcond62.not, label %.loopexit, label %.lr.ph57, !llvm.loop !55

.lr.ph57:                                         ; preds = %27, %28
  %.12755 = phi i64 [ %29, %28 ], [ 1, %27 ]
  %30 = getelementptr i16, ptr %16, i64 %.12755
  %31 = getelementptr i8, ptr %30, i64 -2
  %32 = load i16, ptr %31, align 2, !tbaa !56
  %33 = load i16, ptr %30, align 2, !tbaa !56
  %34 = icmp eq i16 %32, %33
  br i1 %34, label %.loopexit, label %28

.loopexit:                                        ; preds = %.lr.ph57, %28, %27, %.thread48, %.thread, %18
  %.025 = phi ptr [ null, %18 ], [ null, %.thread ], [ %16, %.thread48 ], [ %16, %27 ], [ %16, %28 ], [ %16, %.lr.ph57 ]
  %.024 = phi i32 [ 0, %18 ], [ 0, %.thread ], [ 0, %.thread48 ], [ 1, %27 ], [ 0, %.lr.ph57 ], [ 1, %28 ]
  call void @free(ptr noundef %.025) #21
  br label %._crit_edge.thread

._crit_edge.thread:                               ; preds = %1, %._crit_edge, %.loopexit
  %.030 = phi i32 [ %.024, %.loopexit ], [ 1, %._crit_edge ], [ 1, %1 ]
  call void @llvm.lifetime.end.p0(i64 16, ptr nonnull %2) #21
  ret i32 %.030
}